target datalayout = "e-m:e-p270:32:32-p271:32:32-p272:64:64-i64:64-i128:128-f80:128-n8:16:32:64-S128"
target triple = "x86_64-unknown-linux-gnu"

%"class.std::__cxx11::basic_string" = type { %"struct.std::__cxx11::basic_string<char>::_Alloc_hider", i64, %union.anon }
%"struct.std::__cxx11::basic_string<char>::_Alloc_hider" = type { ptr }
%union.anon = type { i64, [8 x i8] }
%"class.YAML::SingleDocParser" = type { i32, ptr, ptr, %"class.std::unique_ptr", %"class.std::map", i64 }
%"class.std::unique_ptr" = type { %"struct.std::__uniq_ptr_data" }
%"struct.std::__uniq_ptr_data" = type { %"class.std::__uniq_ptr_impl" }
%"class.std::__uniq_ptr_impl" = type { %"class.std::tuple" }
%"class.std::tuple" = type { %"struct.std::_Tuple_impl" }
%"struct.std::_Tuple_impl" = type { %"struct.std::_Head_base.1" }
%"struct.std::_Head_base.1" = type { ptr }
%"class.std::map" = type { %"class.std::_Rb_tree" }
%"class.std::_Rb_tree" = type { %"struct.std::_Rb_tree<std::__cxx11::basic_string<char>, std::pair<const std::__cxx11::basic_string<char>, unsigned long>, std::_Select1st<std::pair<const std::__cxx11::basic_string<char>, unsigned long>>, std::less<std::__cxx11::basic_string<char>>>::_Rb_tree_impl" }
%"struct.std::_Rb_tree<std::__cxx11::basic_string<char>, std::pair<const std::__cxx11::basic_string<char>, unsigned long>, std::_Select1st<std::pair<const std::__cxx11::basic_string<char>, unsigned long>>, std::less<std::__cxx11::basic_string<char>>>::_Rb_tree_impl" = type { %"struct.std::_Rb_tree_key_compare", %"struct.std::_Rb_tree_header" }
%"struct.std::_Rb_tree_key_compare" = type { %"struct.std::less" }
%"struct.std::less" = type { i8 }
%"struct.std::_Rb_tree_header" = type { %"struct.std::_Rb_tree_node_base", i64 }
%"struct.std::_Rb_tree_node_base" = type { i32, ptr, ptr, ptr }
%"struct.YAML::Token" = type <{ i32, i32, %"struct.YAML::Mark", [4 x i8], %"class.std::__cxx11::basic_string", %"class.std::vector.41", i32, [4 x i8] }>
%"struct.YAML::Mark" = type { i32, i32, i32 }
%"class.std::vector.41" = type { %"struct.std::_Vector_base.42" }
%"struct.std::_Vector_base.42" = type { %"struct.std::_Vector_base<std::__cxx11::basic_string<char>, std::allocator<std::__cxx11::basic_string<char>>>::_Vector_impl" }
%"struct.std::_Vector_base<std::__cxx11::basic_string<char>, std::allocator<std::__cxx11::basic_string<char>>>::_Vector_impl" = type { %"struct.std::_Vector_base<std::__cxx11::basic_string<char>, std::allocator<std::__cxx11::basic_string<char>>>::_Vector_impl_data" }
%"struct.std::_Vector_base<std::__cxx11::basic_string<char>, std::allocator<std::__cxx11::basic_string<char>>>::_Vector_impl_data" = type { ptr, ptr, ptr }

; Function Attrs: mustprogress uwtable
define void @_ZN4YAML15SingleDocParser14HandleSequenceERNS_12EventHandlerE(ptr noundef nonnull align 8 dereferenceable(88) %this, ptr noundef nonnull align 8 dereferenceable(8) %eventHandler) #4 align 2 {
entry:
  %this.addr = alloca ptr, align 8
  %eventHandler.addr = alloca ptr, align 8
  store ptr %this, ptr %this.addr, align 8
  store ptr %eventHandler, ptr %eventHandler.addr, align 8
  %this1 = load ptr, ptr %this.addr, align 8
  %m_scanner = getelementptr inbounds %"class.YAML::SingleDocParser", ptr %this1, i32 0, i32 1
  %0 = load ptr, ptr %m_scanner, align 8
  %call = call noundef nonnull align 8 dereferenceable(84) ptr @_ZN4YAML7Scanner4peekEv(ptr noundef nonnull align 8 dereferenceable(480) %0)
  %type = getelementptr inbounds %"struct.YAML::Token", ptr %call, i32 0, i32 1
  %1 = load i32, ptr %type, align 4
  switch i32 %1, label %sw.default [
    i32 3, label %sw.bb
    i32 8, label %sw.bb2
  ]

sw.bb:                                            ; preds = %entry
  %2 = load ptr, ptr %eventHandler.addr, align 8
  call void @_ZN4YAML15SingleDocParser19HandleBlockSequenceERNS_12EventHandlerE(ptr noundef nonnull align 8 dereferenceable(88) %this1, ptr noundef nonnull align 8 dereferenceable(8) %2)
  br label %sw.epilog

sw.bb2:                                           ; preds = %entry
  %3 = load ptr, ptr %eventHandler.addr, align 8
  call void @_ZN4YAML15SingleDocParser18HandleFlowSequenceERNS_12EventHandlerE(ptr noundef nonnull align 8 dereferenceable(88) %this1, ptr noundef nonnull align 8 dereferenceable(8) %3)
  br label %sw.epilog

sw.default:                                       ; preds = %entry
  br label %sw.epilog

sw.epilog:                                        ; preds = %sw.default, %sw.bb2, %sw.bb
  ret void
}