; Function Attrs: mustprogress uwtable
define void @_ZN4YAML15SingleDocParser14HandleSequenceERNS_12EventHandlerE(ptr noundef nonnull align 8 dereferenceable(88) %this, ptr noundef nonnull align 8 dereferenceable(8) %eventHandler) local_unnamed_addr #4 align 2 {
entry:
  %m_scanner = getelementptr inbounds i8, ptr %this, i64 8
  %0 = load ptr, ptr %m_scanner, align 8
  %call = tail call noundef nonnull align 8 dereferenceable(84) ptr @_ZN4YAML7Scanner4peekEv(ptr noundef nonnull align 8 dereferenceable(480) %0)
  %type = getelementptr inbounds i8, ptr %call, i64 4
  %1 = load i32, ptr %type, align 4
  switch i32 %1, label %sw.epilog [
    i32 3, label %sw.bb
    i32 8, label %sw.bb2
  ]

sw.bb:                                            ; preds = %entry
  tail call void @_ZN4YAML15SingleDocParser19HandleBlockSequenceERNS_12EventHandlerE(ptr noundef nonnull align 8 dereferenceable(88) %this, ptr noundef nonnull align 8 dereferenceable(8) %eventHandler)
  br label %sw.epilog

sw.bb2:                                           ; preds = %entry
  tail call void @_ZN4YAML15SingleDocParser18HandleFlowSequenceERNS_12EventHandlerE(ptr noundef nonnull align 8 dereferenceable(88) %this, ptr noundef nonnull align 8 dereferenceable(8) %eventHandler)
  br label %sw.epilog

sw.epilog:                                        ; preds = %entry, %sw.bb2, %sw.bb
  ret void
}